; Function Attrs: nounwind uwtable
define dso_local ptr @list_concat_unique_int(ptr noundef %0, ptr noundef readonly captures(address_is_null) %1) local_unnamed_addr #0 {
  %3 = getelementptr inbounds nuw i8, ptr %1, i64 4
  %.not = icmp eq ptr %1, null
  br i1 %.not, label %._crit_edge, label %.lr.ph

.lr.ph:                                           ; preds = %2
  %4 = getelementptr inbounds nuw i8, ptr %1, i64 16
  %5 = load i32, ptr %3, align 4
  %6 = icmp sgt i32 %5, 0
  br i1 %6, label %.lr.ph23, label %._crit_edge

._crit_edge:                                      ; preds = %list_member_int.exit, %.lr.ph, %2
  %.0.lcssa = phi ptr [ %0, %2 ], [ %0, %.lr.ph ], [ %.1, %list_member_int.exit ]
  ret ptr %.0.lcssa

.lr.ph23:                                         ; preds = %.lr.ph, %list_member_int.exit
  %7 = phi i32 [ %22, %list_member_int.exit ], [ %5, %.lr.ph ]
  %indvars.iv = phi i64 [ %indvars.iv.next, %list_member_int.exit ], [ 0, %.lr.ph ]
  %.01721 = phi ptr [ %.1, %list_member_int.exit ], [ %0, %.lr.ph ]
  %8 = load ptr, ptr %4, align 8
  %9 = getelementptr inbounds nuw %union.ListCell, ptr %8, i64 %indvars.iv
  %10 = load i32, ptr %9, align 8
  %11 = getelementptr inbounds nuw i8, ptr %.01721, i64 16
  %.not.i = icmp eq ptr %.01721, null
  br i1 %.not.i, label %.loopexit, label %.lr.ph.i

.lr.ph.i:                                         ; preds = %.lr.ph23
  %12 = getelementptr inbounds nuw i8, ptr %.01721, i64 4
  %13 = load i32, ptr %12, align 4
  %14 = icmp sgt i32 %13, 0
  br i1 %14, label %.lr.ph23.i, label %.loopexit

.lr.ph23.i:                                       ; preds = %.lr.ph.i
  %15 = load ptr, ptr %11, align 8
  %wide.trip.count.i = zext nneg i32 %13 to i64
  br label %17

16:                                               ; preds = %17
  %indvars.iv.next.i = add nuw nsw i64 %indvars.iv.i, 1
  %exitcond.not.i = icmp eq i64 %indvars.iv.next.i, %wide.trip.count.i
  br i1 %exitcond.not.i, label %.loopexit, label %17

17:                                               ; preds = %16, %.lr.ph23.i
  %indvars.iv.i = phi i64 [ 0, %.lr.ph23.i ], [ %indvars.iv.next.i, %16 ]
  %18 = getelementptr inbounds nuw %union.ListCell, ptr %15, i64 %indvars.iv.i
  %19 = load i32, ptr %18, align 8
  %20 = icmp eq i32 %19, %10
  br i1 %20, label %list_member_int.exit, label %16

.loopexit:                                        ; preds = %16, %.lr.ph23, %.lr.ph.i
  %21 = tail call ptr @lappend_int(ptr noundef %.01721, i32 noundef %10)
  %.pre = load i32, ptr %3, align 4
  br label %list_member_int.exit

list_member_int.exit:                             ; preds = %17, %.loopexit
  %22 = phi i32 [ %.pre, %.loopexit ], [ %7, %17 ]
  %.1 = phi ptr [ %21, %.loopexit ], [ %.01721, %17 ]
  %indvars.iv.next = add nuw nsw i64 %indvars.iv, 1
  %23 = sext i32 %22 to i64
  %24 = icmp slt i64 %indvars.iv.next, %23
  br i1 %24, label %.lr.ph23, label %._crit_edge
}